0000000000000000 __Z27testDataOnDecisionTreeRulesNSt3__16vectorINS_12basic_stringIcNS_11char_traitsIcEENS_9allocatorIcEEEENS4_IS6_EEEE:
       0: 55                           	pushq	%rbp
       1: 48 89 e5                     	movq	%rsp, %rbp
       4: 48 83 ec 20                  	subq	$32, %rsp
       8: 48 89 f8                     	movq	%rdi, %rax
       b: 31 c9                        	xorl	%ecx, %ecx
       d: 89 ca                        	movl	%ecx, %edx
       f: 49 89 f8                     	movq	%rdi, %r8
      12: 4c 89 45 f8                  	movq	%r8, -8(%rbp)
      16: 48 89 7d f0                  	movq	%rdi, -16(%rbp)
      1a: 48 89 f7                     	movq	%rsi, %rdi
      1d: 48 89 75 e8                  	movq	%rsi, -24(%rbp)
      21: 48 89 d6                     	movq	%rdx, %rsi
      24: 48 89 45 e0                  	movq	%rax, -32(%rbp)
      28: e8 00 00 00 00               	callq	0 <__Z27testDataOnDecisionTreeRulesNSt3__16vectorINS_12basic_stringIcNS_11char_traitsIcEENS_9allocatorIcEEEENS4_IS6_EEEE+0x2d>
      2d: 48 89 c7                     	movq	%rax, %rdi
      30: 48 8d 35 79 04 00 00         	leaq	1145(%rip), %rsi
      37: e8 00 00 00 00               	callq	0 <__Z27testDataOnDecisionTreeRulesNSt3__16vectorINS_12basic_stringIcNS_11char_traitsIcEENS_9allocatorIcEEEENS4_IS6_EEEE+0x3c>
      3c: a8 01                        	testb	$1, %al
      3e: 0f 85 05 00 00 00            	jne	5 <__Z27testDataOnDecisionTreeRulesNSt3__16vectorINS_12basic_stringIcNS_11char_traitsIcEENS_9allocatorIcEEEENS4_IS6_EEEE+0x49>
      44: e9 54 00 00 00               	jmp	84 <__Z27testDataOnDecisionTreeRulesNSt3__16vectorINS_12basic_stringIcNS_11char_traitsIcEENS_9allocatorIcEEEENS4_IS6_EEEE+0x9d>
      49: 48 8b 7d e8                  	movq	-24(%rbp), %rdi
      4d: be 01 00 00 00               	movl	$1, %esi
      52: e8 00 00 00 00               	callq	0 <__Z27testDataOnDecisionTreeRulesNSt3__16vectorINS_12basic_stringIcNS_11char_traitsIcEENS_9allocatorIcEEEENS4_IS6_EEEE+0x57>
      57: 48 89 c7                     	movq	%rax, %rdi
      5a: 48 8d 35 55 04 00 00         	leaq	1109(%rip), %rsi
      61: e8 00 00 00 00               	callq	0 <__Z27testDataOnDecisionTreeRulesNSt3__16vectorINS_12basic_stringIcNS_11char_traitsIcEENS_9allocatorIcEEEENS4_IS6_EEEE+0x66>
      66: a8 01                        	testb	$1, %al
      68: 0f 85 05 00 00 00            	jne	5 <__Z27testDataOnDecisionTreeRulesNSt3__16vectorINS_12basic_stringIcNS_11char_traitsIcEENS_9allocatorIcEEEENS4_IS6_EEEE+0x73>
      6e: e9 15 00 00 00               	jmp	21 <__Z27testDataOnDecisionTreeRulesNSt3__16vectorINS_12basic_stringIcNS_11char_traitsIcEENS_9allocatorIcEEEENS4_IS6_EEEE+0x88>
      73: 48 8b 7d f0                  	movq	-16(%rbp), %rdi
      77: 48 8d 35 3d 04 00 00         	leaq	1085(%rip), %rsi
      7e: e8 00 00 00 00               	callq	0 <__Z27testDataOnDecisionTreeRulesNSt3__16vectorINS_12basic_stringIcNS_11char_traitsIcEENS_9allocatorIcEEEENS4_IS6_EEEE+0x83>
      83: e9 a2 00 00 00               	jmp	162 <__Z27testDataOnDecisionTreeRulesNSt3__16vectorINS_12basic_stringIcNS_11char_traitsIcEENS_9allocatorIcEEEENS4_IS6_EEEE+0x12a>
      88: 48 8b 7d f0                  	movq	-16(%rbp), %rdi
      8c: 48 8d 35 2b 04 00 00         	leaq	1067(%rip), %rsi
      93: e8 00 00 00 00               	callq	0 <__Z27testDataOnDecisionTreeRulesNSt3__16vectorINS_12basic_stringIcNS_11char_traitsIcEENS_9allocatorIcEEEENS4_IS6_EEEE+0x98>
      98: e9 8d 00 00 00               	jmp	141 <__Z27testDataOnDecisionTreeRulesNSt3__16vectorINS_12basic_stringIcNS_11char_traitsIcEENS_9allocatorIcEEEENS4_IS6_EEEE+0x12a>
      9d: 31 c0                        	xorl	%eax, %eax
      9f: 89 c6                        	movl	%eax, %esi
      a1: 48 8b 7d e8                  	movq	-24(%rbp), %rdi
      a5: e8 00 00 00 00               	callq	0 <__Z27testDataOnDecisionTreeRulesNSt3__16vectorINS_12basic_stringIcNS_11char_traitsIcEENS_9allocatorIcEEEENS4_IS6_EEEE+0xaa>
      aa: 48 89 c7                     	movq	%rax, %rdi
      ad: 48 8d 35 0e 04 00 00         	leaq	1038(%rip), %rsi
      b4: e8 00 00 00 00               	callq	0 <__Z27testDataOnDecisionTreeRulesNSt3__16vectorINS_12basic_stringIcNS_11char_traitsIcEENS_9allocatorIcEEEENS4_IS6_EEEE+0xb9>
      b9: a8 01                        	testb	$1, %al
      bb: 0f 85 05 00 00 00            	jne	5 <__Z27testDataOnDecisionTreeRulesNSt3__16vectorINS_12basic_stringIcNS_11char_traitsIcEENS_9allocatorIcEEEENS4_IS6_EEEE+0xc6>
      c1: e9 15 00 00 00               	jmp	21 <__Z27testDataOnDecisionTreeRulesNSt3__16vectorINS_12basic_stringIcNS_11char_traitsIcEENS_9allocatorIcEEEENS4_IS6_EEEE+0xdb>
      c6: 48 8b 7d f0                  	movq	-16(%rbp), %rdi
      ca: 48 8d 35 ed 03 00 00         	leaq	1005(%rip), %rsi
      d1: e8 00 00 00 00               	callq	0 <__Z27testDataOnDecisionTreeRulesNSt3__16vectorINS_12basic_stringIcNS_11char_traitsIcEENS_9allocatorIcEEEENS4_IS6_EEEE+0xd6>
      d6: e9 4f 00 00 00               	jmp	79 <__Z27testDataOnDecisionTreeRulesNSt3__16vectorINS_12basic_stringIcNS_11char_traitsIcEENS_9allocatorIcEEEENS4_IS6_EEEE+0x12a>
      db: 48 8b 7d e8                  	movq	-24(%rbp), %rdi
      df: be 02 00 00 00               	movl	$2, %esi
      e4: e8 00 00 00 00               	callq	0 <__Z27testDataOnDecisionTreeRulesNSt3__16vectorINS_12basic_stringIcNS_11char_traitsIcEENS_9allocatorIcEEEENS4_IS6_EEEE+0xe9>
      e9: 48 89 c7                     	movq	%rax, %rdi
      ec: 48 8d 35 d8 03 00 00         	leaq	984(%rip), %rsi
      f3: e8 00 00 00 00               	callq	0 <__Z27testDataOnDecisionTreeRulesNSt3__16vectorINS_12basic_stringIcNS_11char_traitsIcEENS_9allocatorIcEEEENS4_IS6_EEEE+0xf8>
      f8: a8 01                        	testb	$1, %al
      fa: 0f 85 05 00 00 00            	jne	5 <__Z27testDataOnDecisionTreeRulesNSt3__16vectorINS_12basic_stringIcNS_11char_traitsIcEENS_9allocatorIcEEEENS4_IS6_EEEE+0x105>
     100: e9 15 00 00 00               	jmp	21 <__Z27testDataOnDecisionTreeRulesNSt3__16vectorINS_12basic_stringIcNS_11char_traitsIcEENS_9allocatorIcEEEENS4_IS6_EEEE+0x11a>
     105: 48 8b 7d f0                  	movq	-16(%rbp), %rdi
     109: 48 8d 35 ab 03 00 00         	leaq	939(%rip), %rsi
     110: e8 00 00 00 00               	callq	0 <__Z27testDataOnDecisionTreeRulesNSt3__16vectorINS_12basic_stringIcNS_11char_traitsIcEENS_9allocatorIcEEEENS4_IS6_EEEE+0x115>
     115: e9 10 00 00 00               	jmp	16 <__Z27testDataOnDecisionTreeRulesNSt3__16vectorINS_12basic_stringIcNS_11char_traitsIcEENS_9allocatorIcEEEENS4_IS6_EEEE+0x12a>
     11a: 48 8b 7d f0                  	movq	-16(%rbp), %rdi
     11e: 48 8d 35 99 03 00 00         	leaq	921(%rip), %rsi
     125: e8 00 00 00 00               	callq	0 <__Z27testDataOnDecisionTreeRulesNSt3__16vectorINS_12basic_stringIcNS_11char_traitsIcEENS_9allocatorIcEEEENS4_IS6_EEEE+0x12a>
     12a: 48 8b 45 e0                  	movq	-32(%rbp), %rax
     12e: 48 83 c4 20                  	addq	$32, %rsp
     132: 5d                           	popq	%rbp
     133: c3                           	retq
     134: 66 2e 0f 1f 84 00 00 00 00 00	nopw	%cs:(%rax,%rax)
     13e: 66 90                        	nop

0000000000000140 __ZNSt3__1eqIcNS_11char_traitsIcEENS_9allocatorIcEEEEbRKNS_12basic_stringIT_T0_T1_EEPKS6_:
     140: 55                           	pushq	%rbp
     141: 48 89 e5                     	movq	%rsp, %rbp
     144: 48 83 ec 40                  	subq	$64, %rsp
     148: 48 89 7d f0                  	movq	%rdi, -16(%rbp)
     14c: 48 89 75 e8                  	movq	%rsi, -24(%rbp)
     150: 48 8b 7d e8                  	movq	-24(%rbp), %rdi
     154: e8 00 00 00 00               	callq	0 <__ZNSt3__1eqIcNS_11char_traitsIcEENS_9allocatorIcEEEEbRKNS_12basic_stringIT_T0_T1_EEPKS6_+0x19>
     159: 48 89 45 e0                  	movq	%rax, -32(%rbp)
     15d: 48 8b 45 e0                  	movq	-32(%rbp), %rax
     161: 48 8b 7d f0                  	movq	-16(%rbp), %rdi
     165: 48 89 45 c8                  	movq	%rax, -56(%rbp)
     169: e8 00 00 00 00               	callq	0 <__ZNSt3__1eqIcNS_11char_traitsIcEENS_9allocatorIcEEEEbRKNS_12basic_stringIT_T0_T1_EEPKS6_+0x2e>
     16e: 48 8b 4d c8                  	movq	-56(%rbp), %rcx
     172: 48 39 c1                     	cmpq	%rax, %rcx
     175: 0f 84 09 00 00 00            	je	9 <__ZNSt3__1eqIcNS_11char_traitsIcEENS_9allocatorIcEEEEbRKNS_12basic_stringIT_T0_T1_EEPKS6_+0x44>
     17b: c6 45 ff 00                  	movb	$0, -1(%rbp)
     17f: e9 48 00 00 00               	jmp	72 <__ZNSt3__1eqIcNS_11char_traitsIcEENS_9allocatorIcEEEEbRKNS_12basic_stringIT_T0_T1_EEPKS6_+0x8c>
     184: 48 8b 7d f0                  	movq	-16(%rbp), %rdi
     188: 48 8b 4d e8                  	movq	-24(%rbp), %rcx
     18c: 4c 8b 45 e0                  	movq	-32(%rbp), %r8
     190: 31 c0                        	xorl	%eax, %eax
     192: 89 c6                        	movl	%eax, %esi
     194: 48 c7 c2 ff ff ff ff         	movq	$-1, %rdx
     19b: e8 00 00 00 00               	callq	0 <__ZNSt3__1eqIcNS_11char_traitsIcEENS_9allocatorIcEEEEbRKNS_12basic_stringIT_T0_T1_EEPKS6_+0x60>
     1a0: 89 45 c4                     	movl	%eax, -60(%rbp)
     1a3: e9 00 00 00 00               	jmp	0 <__ZNSt3__1eqIcNS_11char_traitsIcEENS_9allocatorIcEEEEbRKNS_12basic_stringIT_T0_T1_EEPKS6_+0x68>
     1a8: 8b 45 c4                     	movl	-60(%rbp), %eax
     1ab: 83 f8 00                     	cmpl	$0, %eax
     1ae: 0f 94 c1                     	sete	%cl
     1b1: 80 e1 01                     	andb	$1, %cl
     1b4: 88 4d ff                     	movb	%cl, -1(%rbp)
     1b7: e9 10 00 00 00               	jmp	16 <__ZNSt3__1eqIcNS_11char_traitsIcEENS_9allocatorIcEEEEbRKNS_12basic_stringIT_T0_T1_EEPKS6_+0x8c>
     1bc: 48 89 45 d8                  	movq	%rax, -40(%rbp)
     1c0: 89 55 d4                     	movl	%edx, -44(%rbp)
     1c3: 48 8b 7d d8                  	movq	-40(%rbp), %rdi
     1c7: e8 00 00 00 00               	callq	0 <__ZNSt3__1eqIcNS_11char_traitsIcEENS_9allocatorIcEEEEbRKNS_12basic_stringIT_T0_T1_EEPKS6_+0x8c>
     1cc: 8a 45 ff                     	movb	-1(%rbp), %al
     1cf: 24 01                        	andb	$1, %al
     1d1: 0f b6 c0                     	movzbl	%al, %eax
     1d4: 48 83 c4 40                  	addq	$64, %rsp
     1d8: 5d                           	popq	%rbp
     1d9: c3                           	retq
     1da: 66 0f 1f 44 00 00            	nopw	(%rax,%rax)

00000000000001e0 __ZNSt3__16vectorINS_12basic_stringIcNS_11char_traitsIcEENS_9allocatorIcEEEENS4_IS6_EEEixEm:
     1e0: 55                           	pushq	%rbp
     1e1: 48 89 e5                     	movq	%rsp, %rbp
     1e4: 48 89 7d f8                  	movq	%rdi, -8(%rbp)
     1e8: 48 89 75 f0                  	movq	%rsi, -16(%rbp)
     1ec: 48 8b 45 f8                  	movq	-8(%rbp), %rax
     1f0: 48 8b 00                     	movq	(%rax), %rax
     1f3: 48 69 4d f0 18 00 00 00      	imulq	$24, -16(%rbp), %rcx
     1fb: 48 01 c8                     	addq	%rcx, %rax
     1fe: 5d                           	popq	%rbp
     1ff: c3                           	retq

0000000000000200 __ZNSt3__112basic_stringIcNS_11char_traitsIcEENS_9allocatorIcEEEC1INS_9nullptr_tEEEPKc:
     200: 55                           	pushq	%rbp
     201: 48 89 e5                     	movq	%rsp, %rbp
     204: 48 83 ec 10                  	subq	$16, %rsp
     208: 48 89 7d f8                  	movq	%rdi, -8(%rbp)
     20c: 48 89 75 f0                  	movq	%rsi, -16(%rbp)
     210: 48 8b 7d f8                  	movq	-8(%rbp), %rdi
     214: 48 8b 75 f0                  	movq	-16(%rbp), %rsi
     218: e8 00 00 00 00               	callq	0 <__ZNSt3__112basic_stringIcNS_11char_traitsIcEENS_9allocatorIcEEEC1INS_9nullptr_tEEEPKc+0x1d>
     21d: 48 83 c4 10                  	addq	$16, %rsp
     221: 5d                           	popq	%rbp
     222: c3                           	retq
     223: 66 2e 0f 1f 84 00 00 00 00 00	nopw	%cs:(%rax,%rax)
     22d: 0f 1f 00                     	nopl	(%rax)

0000000000000230 __ZNSt3__111char_traitsIcE6lengthEPKc:
     230: 55                           	pushq	%rbp
     231: 48 89 e5                     	movq	%rsp, %rbp
     234: 48 83 ec 10                  	subq	$16, %rsp
     238: 48 89 7d f8                  	movq	%rdi, -8(%rbp)
     23c: 48 8b 7d f8                  	movq	-8(%rbp), %rdi
     240: e8 00 00 00 00               	callq	0 <__ZNSt3__111char_traitsIcE6lengthEPKc+0x15>
     245: 48 83 c4 10                  	addq	$16, %rsp
     249: 5d                           	popq	%rbp
     24a: c3                           	retq
     24b: 0f 1f 44 00 00               	nopl	(%rax,%rax)

0000000000000250 __ZNKSt3__112basic_stringIcNS_11char_traitsIcEENS_9allocatorIcEEE4sizeEv:
     250: 55                           	pushq	%rbp
     251: 48 89 e5                     	movq	%rsp, %rbp
     254: 48 83 ec 20                  	subq	$32, %rsp
     258: 48 89 7d f8                  	movq	%rdi, -8(%rbp)
     25c: 48 8b 45 f8                  	movq	-8(%rbp), %rax
     260: 48 89 c7                     	movq	%rax, %rdi
     263: 48 89 45 f0                  	movq	%rax, -16(%rbp)
     267: e8 00 00 00 00               	callq	0 <__ZNKSt3__112basic_stringIcNS_11char_traitsIcEENS_9allocatorIcEEE4sizeEv+0x1c>
     26c: a8 01                        	testb	$1, %al
     26e: 0f 85 05 00 00 00            	jne	5 <__ZNKSt3__112basic_stringIcNS_11char_traitsIcEENS_9allocatorIcEEE4sizeEv+0x29>
     274: e9 12 00 00 00               	jmp	18 <__ZNKSt3__112basic_stringIcNS_11char_traitsIcEENS_9allocatorIcEEE4sizeEv+0x3b>
     279: 48 8b 7d f0                  	movq	-16(%rbp), %rdi
     27d: e8 00 00 00 00               	callq	0 <__ZNKSt3__112basic_stringIcNS_11char_traitsIcEENS_9allocatorIcEEE4sizeEv+0x32>
     282: 48 89 45 e8                  	movq	%rax, -24(%rbp)
     286: e9 0d 00 00 00               	jmp	13 <__ZNKSt3__112basic_stringIcNS_11char_traitsIcEENS_9allocatorIcEEE4sizeEv+0x48>
     28b: 48 8b 7d f0                  	movq	-16(%rbp), %rdi
     28f: e8 00 00 00 00               	callq	0 <__ZNKSt3__112basic_stringIcNS_11char_traitsIcEENS_9allocatorIcEEE4sizeEv+0x44>
     294: 48 89 45 e8                  	movq	%rax, -24(%rbp)
     298: 48 8b 45 e8                  	movq	-24(%rbp), %rax
     29c: 48 83 c4 20                  	addq	$32, %rsp
     2a0: 5d                           	popq	%rbp
     2a1: c3                           	retq
     2a2: 66 2e 0f 1f 84 00 00 00 00 00	nopw	%cs:(%rax,%rax)
     2ac: 0f 1f 40 00                  	nopl	(%rax)

00000000000002b0 __ZNKSt3__112basic_stringIcNS_11char_traitsIcEENS_9allocatorIcEEE9__is_longEv:
     2b0: 55                           	pushq	%rbp
     2b1: 48 89 e5                     	movq	%rsp, %rbp
     2b4: 48 83 ec 10                  	subq	$16, %rsp
     2b8: 48 89 7d f8                  	movq	%rdi, -8(%rbp)
     2bc: 48 8b 7d f8                  	movq	-8(%rbp), %rdi
     2c0: e8 00 00 00 00               	callq	0 <__ZNKSt3__112basic_stringIcNS_11char_traitsIcEENS_9allocatorIcEEE9__is_longEv+0x15>
     2c5: 0f b6 08                     	movzbl	(%rax), %ecx
     2c8: 89 c8                        	movl	%ecx, %eax
     2ca: 48 25 01 00 00 00            	andq	$1, %rax
     2d0: 48 83 f8 00                  	cmpq	$0, %rax
     2d4: 0f 95 c2                     	setne	%dl
     2d7: 80 e2 01                     	andb	$1, %dl
     2da: 0f b6 c2                     	movzbl	%dl, %eax
     2dd: 48 83 c4 10                  	addq	$16, %rsp
     2e1: 5d                           	popq	%rbp
     2e2: c3                           	retq
     2e3: 66 2e 0f 1f 84 00 00 00 00 00	nopw	%cs:(%rax,%rax)
     2ed: 0f 1f 00                     	nopl	(%rax)

00000000000002f0 __ZNKSt3__112basic_stringIcNS_11char_traitsIcEENS_9allocatorIcEEE15__get_long_sizeEv:
     2f0: 55                           	pushq	%rbp
     2f1: 48 89 e5                     	movq	%rsp, %rbp
     2f4: 48 83 ec 10                  	subq	$16, %rsp
     2f8: 48 89 7d f8                  	movq	%rdi, -8(%rbp)
     2fc: 48 8b 7d f8                  	movq	-8(%rbp), %rdi
     300: e8 00 00 00 00               	callq	0 <__ZNKSt3__112basic_stringIcNS_11char_traitsIcEENS_9allocatorIcEEE15__get_long_sizeEv+0x15>
     305: 48 8b 40 08                  	movq	8(%rax), %rax
     309: 48 83 c4 10                  	addq	$16, %rsp
     30d: 5d                           	popq	%rbp
     30e: c3                           	retq
     30f: 90                           	nop

0000000000000310 __ZNKSt3__112basic_stringIcNS_11char_traitsIcEENS_9allocatorIcEEE16__get_short_sizeEv:
     310: 55                           	pushq	%rbp
     311: 48 89 e5                     	movq	%rsp, %rbp
     314: 48 83 ec 10                  	subq	$16, %rsp
     318: 48 89 7d f8                  	movq	%rdi, -8(%rbp)
     31c: 48 8b 7d f8                  	movq	-8(%rbp), %rdi
     320: e8 00 00 00 00               	callq	0 <__ZNKSt3__112basic_stringIcNS_11char_traitsIcEENS_9allocatorIcEEE16__get_short_sizeEv+0x15>
     325: 0f b6 08                     	movzbl	(%rax), %ecx
     328: c1 f9 01                     	sarl	$1, %ecx
     32b: 48 63 c1                     	movslq	%ecx, %rax
     32e: 48 83 c4 10                  	addq	$16, %rsp
     332: 5d                           	popq	%rbp
     333: c3                           	retq
     334: 66 2e 0f 1f 84 00 00 00 00 00	nopw	%cs:(%rax,%rax)
     33e: 66 90                        	nop

0000000000000340 __ZNKSt3__117__compressed_pairINS_12basic_stringIcNS_11char_traitsIcEENS_9allocatorIcEEE5__repES5_E5firstEv:
     340: 55                           	pushq	%rbp
     341: 48 89 e5                     	movq	%rsp, %rbp
     344: 48 83 ec 10                  	subq	$16, %rsp
     348: 48 89 7d f8                  	movq	%rdi, -8(%rbp)
     34c: 48 8b 45 f8                  	movq	-8(%rbp), %rax
     350: 48 89 c7                     	movq	%rax, %rdi
     353: e8 00 00 00 00               	callq	0 <__ZNKSt3__117__compressed_pairINS_12basic_stringIcNS_11char_traitsIcEENS_9allocatorIcEEE5__repES5_E5firstEv+0x18>
     358: 48 83 c4 10                  	addq	$16, %rsp
     35c: 5d                           	popq	%rbp
     35d: c3                           	retq
     35e: 66 90                        	nop

0000000000000360 __ZNKSt3__122__compressed_pair_elemINS_12basic_stringIcNS_11char_traitsIcEENS_9allocatorIcEEE5__repELi0ELb0EE5__getEv:
     360: 55                           	pushq	%rbp
     361: 48 89 e5                     	movq	%rsp, %rbp
     364: 48 89 7d f8                  	movq	%rdi, -8(%rbp)
     368: 48 8b 45 f8                  	movq	-8(%rbp), %rax
     36c: 5d                           	popq	%rbp
     36d: c3                           	retq
     36e: 66 90                        	nop

0000000000000370 __ZNSt3__112basic_stringIcNS_11char_traitsIcEENS_9allocatorIcEEEC2INS_9nullptr_tEEEPKc:
     370: 55                           	pushq	%rbp
     371: 48 89 e5                     	movq	%rsp, %rbp
     374: 48 83 ec 30                  	subq	$48, %rsp
     378: 48 89 7d f8                  	movq	%rdi, -8(%rbp)
     37c: 48 89 75 f0                  	movq	%rsi, -16(%rbp)
     380: 48 8b 45 f8                  	movq	-8(%rbp), %rax
     384: 48 89 c7                     	movq	%rax, %rdi
     387: 48 8d 75 e8                  	leaq	-24(%rbp), %rsi
     38b: 48 8d 55 e0                  	leaq	-32(%rbp), %rdx
     38f: 48 89 45 d8                  	movq	%rax, -40(%rbp)
     393: e8 00 00 00 00               	callq	0 <__ZNSt3__112basic_stringIcNS_11char_traitsIcEENS_9allocatorIcEEEC2INS_9nullptr_tEEEPKc+0x28>
     398: 48 8b 75 f0                  	movq	-16(%rbp), %rsi
     39c: 48 8b 7d f0                  	movq	-16(%rbp), %rdi
     3a0: 48 89 75 d0                  	movq	%rsi, -48(%rbp)
     3a4: e8 00 00 00 00               	callq	0 <__ZNSt3__112basic_stringIcNS_11char_traitsIcEENS_9allocatorIcEEEC2INS_9nullptr_tEEEPKc+0x39>
     3a9: 48 8b 7d d8                  	movq	-40(%rbp), %rdi
     3ad: 48 8b 75 d0                  	movq	-48(%rbp), %rsi
     3b1: 48 89 c2                     	movq	%rax, %rdx
     3b4: e8 00 00 00 00               	callq	0 <__ZNSt3__112basic_stringIcNS_11char_traitsIcEENS_9allocatorIcEEEC2INS_9nullptr_tEEEPKc+0x49>
     3b9: 48 83 c4 30                  	addq	$48, %rsp
     3bd: 5d                           	popq	%rbp
     3be: c3                           	retq
     3bf: 90                           	nop

00000000000003c0 __ZNSt3__117__compressed_pairINS_12basic_stringIcNS_11char_traitsIcEENS_9allocatorIcEEE5__repES5_EC1INS_18__default_init_tagESA_EEOT_OT0_:
     3c0: 55                           	pushq	%rbp
     3c1: 48 89 e5                     	movq	%rsp, %rbp
     3c4: 48 83 ec 20                  	subq	$32, %rsp
     3c8: 48 89 7d f8                  	movq	%rdi, -8(%rbp)
     3cc: 48 89 75 f0                  	movq	%rsi, -16(%rbp)
     3d0: 48 89 55 e8                  	movq	%rdx, -24(%rbp)
     3d4: 48 8b 7d f8                  	movq	-8(%rbp), %rdi
     3d8: 48 8b 75 f0                  	movq	-16(%rbp), %rsi
     3dc: 48 8b 55 e8                  	movq	-24(%rbp), %rdx
     3e0: e8 00 00 00 00               	callq	0 <__ZNSt3__117__compressed_pairINS_12basic_stringIcNS_11char_traitsIcEENS_9allocatorIcEEE5__repES5_EC1INS_18__default_init_tagESA_EEOT_OT0_+0x25>
     3e5: 48 83 c4 20                  	addq	$32, %rsp
     3e9: 5d                           	popq	%rbp
     3ea: c3                           	retq
     3eb: 0f 1f 44 00 00               	nopl	(%rax,%rax)

00000000000003f0 __ZNSt3__117__compressed_pairINS_12basic_stringIcNS_11char_traitsIcEENS_9allocatorIcEEE5__repES5_EC2INS_18__default_init_tagESA_EEOT_OT0_:
     3f0: 55                           	pushq	%rbp
     3f1: 48 89 e5                     	movq	%rsp, %rbp
     3f4: 48 83 ec 50                  	subq	$80, %rsp
     3f8: 48 89 7d f8                  	movq	%rdi, -8(%rbp)
     3fc: 48 89 75 f0                  	movq	%rsi, -16(%rbp)
     400: 48 89 55 e8                  	movq	%rdx, -24(%rbp)
     404: 48 8b 45 f8                  	movq	-8(%rbp), %rax
     408: 48 89 c1                     	movq	%rax, %rcx
     40b: 48 8b 7d f0                  	movq	-16(%rbp), %rdi
     40f: 48 89 45 d0                  	movq	%rax, -48(%rbp)
     413: 48 89 4d c8                  	movq	%rcx, -56(%rbp)
     417: e8 00 00 00 00               	callq	0 <__ZNSt3__117__compressed_pairINS_12basic_stringIcNS_11char_traitsIcEENS_9allocatorIcEEE5__repES5_EC2INS_18__default_init_tagESA_EEOT_OT0_+0x2c>
     41c: 48 8b 7d c8                  	movq	-56(%rbp), %rdi
     420: 48 89 45 c0                  	movq	%rax, -64(%rbp)
     424: e8 00 00 00 00               	callq	0 <__ZNSt3__117__compressed_pairINS_12basic_stringIcNS_11char_traitsIcEENS_9allocatorIcEEE5__repES5_EC2INS_18__default_init_tagESA_EEOT_OT0_+0x39>
     429: 48 8b 45 d0                  	movq	-48(%rbp), %rax
     42d: 48 8b 7d e8                  	movq	-24(%rbp), %rdi
     431: 48 89 45 b8                  	movq	%rax, -72(%rbp)
     435: e8 00 00 00 00               	callq	0 <__ZNSt3__117__compressed_pairINS_12basic_stringIcNS_11char_traitsIcEENS_9allocatorIcEEE5__repES5_EC2INS_18__default_init_tagESA_EEOT_OT0_+0x4a>
     43a: 48 8b 7d b8                  	movq	-72(%rbp), %rdi
     43e: 48 89 45 b0                  	movq	%rax, -80(%rbp)
     442: e8 00 00 00 00               	callq	0 <__ZNSt3__117__compressed_pairINS_12basic_stringIcNS_11char_traitsIcEENS_9allocatorIcEEE5__repES5_EC2INS_18__default_init_tagESA_EEOT_OT0_+0x57>
     447: 48 83 c4 50                  	addq	$80, %rsp
     44b: 5d                           	popq	%rbp
     44c: c3                           	retq
     44d: 0f 1f 00                     	nopl	(%rax)

0000000000000450 __ZNSt3__1L7forwardINS_18__default_init_tagEEEOT_RNS_16remove_referenceIS2_E4typeE:
     450: 55                           	pushq	%rbp
     451: 48 89 e5                     	movq	%rsp, %rbp
     454: 48 89 7d f8                  	movq	%rdi, -8(%rbp)
     458: 48 8b 45 f8                  	movq	-8(%rbp), %rax
     45c: 5d                           	popq	%rbp
     45d: c3                           	retq
     45e: 66 90                        	nop

0000000000000460 __ZNSt3__122__compressed_pair_elemINS_12basic_stringIcNS_11char_traitsIcEENS_9allocatorIcEEE5__repELi0ELb0EEC2ENS_18__default_init_tagE:
     460: 55                           	pushq	%rbp
     461: 48 89 e5                     	movq	%rsp, %rbp
     464: 48 89 7d f0                  	movq	%rdi, -16(%rbp)
     468: 5d                           	popq	%rbp
     469: c3                           	retq
     46a: 66 0f 1f 44 00 00            	nopw	(%rax,%rax)

0000000000000470 __ZNSt3__122__compressed_pair_elemINS_9allocatorIcEELi1ELb1EEC2ENS_18__default_init_tagE:
     470: 55                           	pushq	%rbp
     471: 48 89 e5                     	movq	%rsp, %rbp
     474: 48 83 ec 10                  	subq	$16, %rsp
     478: 48 89 7d f0                  	movq	%rdi, -16(%rbp)
     47c: 48 8b 45 f0                  	movq	-16(%rbp), %rax
     480: 48 89 c7                     	movq	%rax, %rdi
     483: e8 00 00 00 00               	callq	0 <__ZNSt3__122__compressed_pair_elemINS_9allocatorIcEELi1ELb1EEC2ENS_18__default_init_tagE+0x18>
     488: 48 83 c4 10                  	addq	$16, %rsp
     48c: 5d                           	popq	%rbp
     48d: c3                           	retq
     48e: 66 90                        	nop

0000000000000490 __ZNSt3__19allocatorIcEC2Ev:
     490: 55                           	pushq	%rbp
     491: 48 89 e5                     	movq	%rsp, %rbp
     494: 48 89 7d f8                  	movq	%rdi, -8(%rbp)
     498: 5d                           	popq	%rbp
     499: c3                           	retq